; Function Attrs: nounwind uwtable
define void @dt_camctl_camera_stop_live_view(ptr noundef readonly captures(none) %0) local_unnamed_addr #0 {
  %2 = getelementptr inbounds nuw i8, ptr %0, i64 144
  %3 = load ptr, ptr %2, align 8, !tbaa !6
  %.not = icmp eq ptr %3, null
  br i1 %.not, label %dt_camctl_camera_set_property_int.exit12, label %4

4:                                                ; preds = %1
  %5 = getelementptr inbounds nuw i8, ptr %3, i64 32980
  %6 = load i32, ptr %5, align 4, !tbaa !60
  %7 = icmp eq i32 %6, 0
  %8 = load i32, ptr getelementptr inbounds nuw (i8, ptr @darktable, i64 8), align 8, !tbaa !19
  %9 = and i32 %8, 32
  %.not9 = icmp eq i32 %9, 0
  br i1 %7, label %10, label %12

10:                                               ; preds = %4
  br i1 %.not9, label %dt_camctl_camera_set_property_int.exit12, label %11

11:                                               ; preds = %10
  tail call void (ptr, ...) @dt_print_ext(ptr noundef nonnull @.str.5) #15
  br label %dt_camctl_camera_set_property_int.exit12

12:                                               ; preds = %4
  br i1 %.not9, label %14, label %13

13:                                               ; preds = %12
  tail call void (ptr, ...) @dt_print_ext(ptr noundef nonnull @.str.6) #15
  br label %14

14:                                               ; preds = %13, %12
  store i32 0, ptr %5, align 4, !tbaa !60
  %15 = getelementptr inbounds nuw i8, ptr %3, i64 33024
  %16 = load i64, ptr %15, align 8, !tbaa !72
  %17 = tail call i32 @dt_pthread_join(i64 noundef %16) #15
  %18 = load ptr, ptr %2, align 8, !tbaa !6
  %19 = icmp eq ptr %18, null
  br i1 %19, label %20, label %28

20:                                               ; preds = %14
  %21 = getelementptr inbounds nuw i8, ptr %0, i64 136
  %22 = load ptr, ptr %21, align 8, !tbaa !61
  %23 = icmp eq ptr %22, null
  br i1 %23, label %24, label %28

24:                                               ; preds = %20
  %25 = load i32, ptr getelementptr inbounds nuw (i8, ptr @darktable, i64 8), align 8, !tbaa !19
  %26 = and i32 %25, 32
  %.not15.i = icmp eq i32 %26, 0
  br i1 %.not15.i, label %dt_camctl_camera_set_property_int.exit, label %27

27:                                               ; preds = %24
  tail call void (ptr, ...) @dt_print_ext(ptr noundef nonnull @.str.26) #15
  br label %dt_camctl_camera_set_property_int.exit

28:                                               ; preds = %20, %14
  %.0.i = phi ptr [ %22, %20 ], [ %18, %14 ]
  %29 = tail call noalias dereferenceable_or_null(24) ptr @g_malloc(i64 noundef 24) #16
  store i32 8, ptr %29, align 8, !tbaa !62
  %30 = tail call noalias ptr @g_strdup(ptr noundef nonnull @.str.3) #15
  %31 = getelementptr inbounds nuw i8, ptr %29, i64 8
  store ptr %30, ptr %31, align 8, !tbaa !64
  %32 = getelementptr inbounds nuw i8, ptr %29, i64 16
  store i32 0, ptr %32, align 8, !tbaa !65
  %33 = getelementptr inbounds nuw i8, ptr %.0.i, i64 32888
  %34 = tail call i32 @pthread_mutex_lock(ptr noundef nonnull %33) #15
  %35 = getelementptr inbounds nuw i8, ptr %.0.i, i64 32928
  %36 = load ptr, ptr %35, align 8, !tbaa !66
  %37 = tail call ptr @g_list_append(ptr noundef %36, ptr noundef nonnull %29) #15
  store ptr %37, ptr %35, align 8, !tbaa !66
  %38 = tail call i32 @pthread_mutex_unlock(ptr noundef nonnull %33) #15
  br label %dt_camctl_camera_set_property_int.exit

dt_camctl_camera_set_property_int.exit:           ; preds = %24, %27, %28
  %39 = load ptr, ptr %2, align 8, !tbaa !6
  %40 = icmp eq ptr %39, null
  br i1 %40, label %41, label %49

41:                                               ; preds = %dt_camctl_camera_set_property_int.exit
  %42 = getelementptr inbounds nuw i8, ptr %0, i64 136
  %43 = load ptr, ptr %42, align 8, !tbaa !61
  %44 = icmp eq ptr %43, null
  br i1 %44, label %45, label %49

45:                                               ; preds = %41
  %46 = load i32, ptr getelementptr inbounds nuw (i8, ptr @darktable, i64 8), align 8, !tbaa !19
  %47 = and i32 %46, 32
  %.not15.i11 = icmp eq i32 %47, 0
  br i1 %.not15.i11, label %dt_camctl_camera_set_property_int.exit12, label %48

48:                                               ; preds = %45
  tail call void (ptr, ...) @dt_print_ext(ptr noundef nonnull @.str.26) #15
  br label %dt_camctl_camera_set_property_int.exit12

49:                                               ; preds = %41, %dt_camctl_camera_set_property_int.exit
  %.0.i10 = phi ptr [ %43, %41 ], [ %39, %dt_camctl_camera_set_property_int.exit ]
  %50 = tail call noalias dereferenceable_or_null(24) ptr @g_malloc(i64 noundef 24) #16
  store i32 8, ptr %50, align 8, !tbaa !62
  %51 = tail call noalias ptr @g_strdup(ptr noundef nonnull @.str.4) #15
  %52 = getelementptr inbounds nuw i8, ptr %50, i64 8
  store ptr %51, ptr %52, align 8, !tbaa !64
  %53 = getelementptr inbounds nuw i8, ptr %50, i64 16
  store i32 0, ptr %53, align 8, !tbaa !65
  %54 = getelementptr inbounds nuw i8, ptr %.0.i10, i64 32888
  %55 = tail call i32 @pthread_mutex_lock(ptr noundef nonnull %54) #15
  %56 = getelementptr inbounds nuw i8, ptr %.0.i10, i64 32928
  %57 = load ptr, ptr %56, align 8, !tbaa !66
  %58 = tail call ptr @g_list_append(ptr noundef %57, ptr noundef nonnull %50) #15
  store ptr %58, ptr %56, align 8, !tbaa !66
  %59 = tail call i32 @pthread_mutex_unlock(ptr noundef nonnull %54) #15
  br label %dt_camctl_camera_set_property_int.exit12

dt_camctl_camera_set_property_int.exit12:         ; preds = %49, %48, %45, %10, %11, %1
  ret void
}